; Function Attrs: nounwind uwtable
define hidden i32 @i2d_DSA_PUBKEY(ptr noundef %a, ptr noundef %pp) local_unnamed_addr #0 {
entry:
  %xpk.i = alloca ptr, align 8
  %tobool.not = icmp eq ptr %a, null
  br i1 %tobool.not, label %return, label %if.end

if.end:                                           ; preds = %entry
  %call = tail call ptr @EVP_PKEY_new() #5
  %tobool1.not = icmp eq ptr %call, null
  br i1 %tobool1.not, label %if.then2, label %if.end.i

if.then2:                                         ; preds = %if.end
  tail call void @ERR_put_error(i32 noundef 11, i32 noundef 0, i32 noundef 65, ptr noundef nonnull @.str.1, i32 noundef 288) #5
  br label %return

if.end.i:                                         ; preds = %if.end
  %call4 = tail call i32 @EVP_PKEY_set1_DSA(ptr noundef nonnull %call, ptr noundef nonnull %a) #5
  call void @llvm.lifetime.start.p0(i64 8, ptr nonnull %xpk.i)
  store ptr null, ptr %xpk.i, align 8
  %call.i = call i32 @X509_PUBKEY_set(ptr noundef nonnull %xpk.i, ptr noundef nonnull %call)
  %tobool1.not.i = icmp eq i32 %call.i, 0
  br i1 %tobool1.not.i, label %i2d_PUBKEY.exit, label %if.end3.i

if.end3.i:                                        ; preds = %if.end.i
  %0 = load ptr, ptr %xpk.i, align 8
  %call.i.i = call i32 @ASN1_item_i2d(ptr noundef %0, ptr noundef %pp, ptr noundef nonnull @X509_PUBKEY_it) #5
  %1 = load ptr, ptr %xpk.i, align 8
  call void @ASN1_item_free(ptr noundef %1, ptr noundef nonnull @X509_PUBKEY_it) #5
  br label %i2d_PUBKEY.exit

i2d_PUBKEY.exit:                                  ; preds = %if.end.i, %if.end3.i
  %retval.0.i = phi i32 [ %call.i.i, %if.end3.i ], [ 0, %if.end.i ]
  call void @llvm.lifetime.end.p0(i64 8, ptr nonnull %xpk.i)
  call void @EVP_PKEY_free(ptr noundef nonnull %call) #5
  br label %return

return:                                           ; preds = %entry, %i2d_PUBKEY.exit, %if.then2
  %retval.0 = phi i32 [ %retval.0.i, %i2d_PUBKEY.exit ], [ 0, %if.then2 ], [ 0, %entry ]
  ret i32 %retval.0
}